(dp1
S'logs'
p2
I00
sS'exnamespaces'
p3
(lp4
sS'images'
p5
I01
sS'api'
p6
S'http://alonbl.shoutwiki.com/w/api.php'
p7
sS'namespaces'
p8
(lp9
S'all'
p10
asS'date'
p11
S'20131203'
p12
sS'path'
p13
S'./alonblshoutwikicom_w-20131203-wikidump'
p14
sS'xml'
p15
I01
sS'index'
p16
S'http://alonbl.shoutwiki.com/w/index.php'
p17
sS'curonly'
p18
I00
sS'delay'
p19
I0
s.