(dp1
S'logs'
p2
I00
sS'exnamespaces'
p3
(lp4
sS'images'
p5
I01
sS'api'
p6
S''
sS'namespaces'
p7
(lp8
S'all'
p9
asS'date'
p10
S'20130610'
p11
sS'path'
p12
S'./alonblwikinetorg_w-20130610-wikidump'
p13
sS'xml'
p14
I01
sS'index'
p15
S'http://alonbl.wikinet.org/w/index.php'
p16
sS'curonly'
p17
I01
sS'delay'
p18
I0
s.